target datalayout = "e-m:e-p270:32:32-p271:32:32-p272:64:64-i64:64-i128:128-f80:128-n8:16:32:64-S128"
target triple = "x86_64-pc-linux-gnu"

%class.Metadata = type { ptr }
%class.ConstantPool = type <{ %class.Metadata, ptr, ptr, ptr, ptr, ptr, i16, i16, i16, i16, i16, [2 x i8], i32, %union.anon.2, [4 x i8] }>
%union.anon.2 = type { i32 }

; Function Attrs: mustprogress nounwind uwtable
define linkonce_odr hidden void @_ZN12ConstantPool27set_generic_signature_indexEt(ptr noundef nonnull align 8 dereferenceable(68) %0, i16 noundef zeroext %1) #1 comdat align 2 {
  %3 = alloca ptr, align 8
  %4 = alloca i16, align 2
  store ptr %0, ptr %3, align 8
  store i16 %1, ptr %4, align 2
  %5 = load ptr, ptr %3, align 8
  %6 = load i16, ptr %4, align 2
  %7 = getelementptr inbounds %class.ConstantPool, ptr %5, i32 0, i32 8
  store i16 %6, ptr %7, align 4
  ret void
}

; Function Attrs: mustprogress nounwind uwtable
define linkonce_odr hidden noundef zeroext i16 @_ZNK12ConstantPool23generic_signature_indexEv(ptr noundef nonnull align 8 dereferenceable(68) %0) #1 comdat align 2 {
  %2 = alloca ptr, align 8
  store ptr %0, ptr %2, align 8
  %3 = load ptr, ptr %2, align 8
  %4 = getelementptr inbounds %class.ConstantPool, ptr %3, i32 0, i32 8
  %5 = load i16, ptr %4, align 4
  ret i16 %5
}

; Function Attrs: mustprogress nounwind uwtable
define linkonce_odr hidden void @_ZN12ConstantPool26set_source_file_name_indexEt(ptr noundef nonnull align 8 dereferenceable(68) %0, i16 noundef zeroext %1) #1 comdat align 2 {
  %3 = alloca ptr, align 8
  %4 = alloca i16, align 2
  store ptr %0, ptr %3, align 8
  store i16 %1, ptr %4, align 2
  %5 = load ptr, ptr %3, align 8
  %6 = load i16, ptr %4, align 2
  %7 = getelementptr inbounds %class.ConstantPool, ptr %5, i32 0, i32 9
  store i16 %6, ptr %7, align 2
  ret void
}

; Function Attrs: mustprogress nounwind uwtable
define linkonce_odr hidden noundef zeroext i16 @_ZNK12ConstantPool22source_file_name_indexEv(ptr noundef nonnull align 8 dereferenceable(68) %0) #1 comdat align 2 {
  %2 = alloca ptr, align 8
  store ptr %0, ptr %2, align 8
  %3 = load ptr, ptr %2, align 8
  %4 = getelementptr inbounds %class.ConstantPool, ptr %3, i32 0, i32 9
  %5 = load i16, ptr %4, align 2
  ret i16 %5
}

; Function Attrs: mustprogress nounwind uwtable
define linkonce_odr hidden void @_ZN12ConstantPool17set_minor_versionEt(ptr noundef nonnull align 8 dereferenceable(68) %0, i16 noundef zeroext %1) #1 comdat align 2 {
  %3 = alloca ptr, align 8
  %4 = alloca i16, align 2
  store ptr %0, ptr %3, align 8
  store i16 %1, ptr %4, align 2
  %5 = load ptr, ptr %3, align 8
  %6 = load i16, ptr %4, align 2
  %7 = getelementptr inbounds %class.ConstantPool, ptr %5, i32 0, i32 7
  store i16 %6, ptr %7, align 2
  ret void
}

; Function Attrs: mustprogress nounwind uwtable
define linkonce_odr hidden noundef zeroext i16 @_ZNK12ConstantPool13minor_versionEv(ptr noundef nonnull align 8 dereferenceable(68) %0) #1 comdat align 2 {
  %2 = alloca ptr, align 8
  store ptr %0, ptr %2, align 8
  %3 = load ptr, ptr %2, align 8
  %4 = getelementptr inbounds %class.ConstantPool, ptr %3, i32 0, i32 7
  %5 = load i16, ptr %4, align 2
  ret i16 %5
}

; Function Attrs: mustprogress nounwind uwtable
define linkonce_odr hidden void @_ZN12ConstantPool17set_major_versionEt(ptr noundef nonnull align 8 dereferenceable(68) %0, i16 noundef zeroext %1) #1 comdat align 2 {
  %3 = alloca ptr, align 8
  %4 = alloca i16, align 2
  store ptr %0, ptr %3, align 8
  store i16 %1, ptr %4, align 2
  %5 = load ptr, ptr %3, align 8
  %6 = load i16, ptr %4, align 2
  %7 = getelementptr inbounds %class.ConstantPool, ptr %5, i32 0, i32 6
  store i16 %6, ptr %7, align 8
  ret void
}

; Function Attrs: mustprogress nounwind uwtable
define linkonce_odr hidden noundef zeroext i16 @_ZNK12ConstantPool13major_versionEv(ptr noundef nonnull align 8 dereferenceable(68) %0) #1 comdat align 2 {
  %2 = alloca ptr, align 8
  store ptr %0, ptr %2, align 8
  %3 = load ptr, ptr %2, align 8
  %4 = getelementptr inbounds %class.ConstantPool, ptr %3, i32 0, i32 6
  %5 = load i16, ptr %4, align 8
  ret i16 %5
}

; Function Attrs: mustprogress nounwind uwtable
define linkonce_odr hidden void @_ZN12ConstantPool24set_has_dynamic_constantEv(ptr noundef nonnull align 8 dereferenceable(68) %0) #1 comdat align 2 {
  %2 = alloca ptr, align 8
  store ptr %0, ptr %2, align 8
  %3 = load ptr, ptr %2, align 8
  %4 = getelementptr inbounds %class.ConstantPool, ptr %3, i32 0, i32 10
  %5 = load i16, ptr %4, align 8
  %6 = zext i16 %5 to i32
  %7 = or i32 %6, 8
  %8 = trunc i32 %7 to i16
  store i16 %8, ptr %4, align 8
  ret void
}

; Function Attrs: mustprogress nounwind uwtable
define linkonce_odr hidden noundef zeroext i1 @_ZNK12ConstantPool20has_dynamic_constantEv(ptr noundef nonnull align 8 dereferenceable(68) %0) #1 comdat align 2 {
  %2 = alloca ptr, align 8
  store ptr %0, ptr %2, align 8
  %3 = load ptr, ptr %2, align 8
  %4 = getelementptr inbounds %class.ConstantPool, ptr %3, i32 0, i32 10
  %5 = load i16, ptr %4, align 8
  %6 = zext i16 %5 to i32
  %7 = and i32 %6, 8
  %8 = icmp ne i32 %7, 0
  ret i1 %8
}

; Function Attrs: mustprogress nounwind uwtable
define hidden void @_ZN12ConstantPool11copy_fieldsEPKS_(ptr noundef nonnull align 8 dereferenceable(68) %0, ptr noundef %1) #1 align 2 {
  %3 = alloca ptr, align 8
  %4 = alloca ptr, align 8
  store ptr %0, ptr %3, align 8
  store ptr %1, ptr %4, align 8
  %5 = load ptr, ptr %3, align 8
  %6 = load ptr, ptr %4, align 8
  %7 = call noundef zeroext i1 @_ZNK12ConstantPool20has_dynamic_constantEv(ptr noundef nonnull align 8 dereferenceable(68) %6)
  br i1 %7, label %8, label %9

8:                                                ; preds = %2
  call void @_ZN12ConstantPool24set_has_dynamic_constantEv(ptr noundef nonnull align 8 dereferenceable(68) %5)
  br label %9

9:                                                ; preds = %8, %2
  %10 = load ptr, ptr %4, align 8
  %11 = call noundef zeroext i16 @_ZNK12ConstantPool13major_versionEv(ptr noundef nonnull align 8 dereferenceable(68) %10)
  call void @_ZN12ConstantPool17set_major_versionEt(ptr noundef nonnull align 8 dereferenceable(68) %5, i16 noundef zeroext %11)
  %12 = load ptr, ptr %4, align 8
  %13 = call noundef zeroext i16 @_ZNK12ConstantPool13minor_versionEv(ptr noundef nonnull align 8 dereferenceable(68) %12)
  call void @_ZN12ConstantPool17set_minor_versionEt(ptr noundef nonnull align 8 dereferenceable(68) %5, i16 noundef zeroext %13)
  %14 = load ptr, ptr %4, align 8
  %15 = call noundef zeroext i16 @_ZNK12ConstantPool22source_file_name_indexEv(ptr noundef nonnull align 8 dereferenceable(68) %14)
  call void @_ZN12ConstantPool26set_source_file_name_indexEt(ptr noundef nonnull align 8 dereferenceable(68) %5, i16 noundef zeroext %15)
  %16 = load ptr, ptr %4, align 8
  %17 = call noundef zeroext i16 @_ZNK12ConstantPool23generic_signature_indexEv(ptr noundef nonnull align 8 dereferenceable(68) %16)
  call void @_ZN12ConstantPool27set_generic_signature_indexEt(ptr noundef nonnull align 8 dereferenceable(68) %5, i16 noundef zeroext %17)
  ret void
}