; Function Attrs: mustprogress nofree norecurse nosync nounwind willreturn memory(argmem: readwrite) uwtable
define hidden void @_ZN12ConstantPool11copy_fieldsEPKS_(ptr nocapture noundef nonnull align 8 dereferenceable(68) %0, ptr nocapture noundef readonly %1) local_unnamed_addr #2 align 2 {
  %3 = getelementptr inbounds i8, ptr %1, i64 56
  %4 = load i16, ptr %3, align 8
  %5 = and i16 %4, 8
  %.not = icmp eq i16 %5, 0
  br i1 %.not, label %10, label %6

6:                                                ; preds = %2
  %7 = getelementptr inbounds i8, ptr %0, i64 56
  %8 = load i16, ptr %7, align 8
  %9 = or i16 %8, 8
  store i16 %9, ptr %7, align 8
  br label %10

10:                                               ; preds = %6, %2
  %11 = getelementptr inbounds i8, ptr %1, i64 48
  %12 = load i16, ptr %11, align 8
  %13 = getelementptr inbounds i8, ptr %0, i64 48
  store i16 %12, ptr %13, align 8
  %14 = getelementptr inbounds i8, ptr %1, i64 50
  %15 = load i16, ptr %14, align 2
  %16 = getelementptr inbounds i8, ptr %0, i64 50
  store i16 %15, ptr %16, align 2
  %17 = getelementptr inbounds i8, ptr %1, i64 54
  %18 = load i16, ptr %17, align 2
  %19 = getelementptr inbounds i8, ptr %0, i64 54
  store i16 %18, ptr %19, align 2
  %20 = getelementptr inbounds i8, ptr %1, i64 52
  %21 = load i16, ptr %20, align 4
  %22 = getelementptr inbounds i8, ptr %0, i64 52
  store i16 %21, ptr %22, align 4
  ret void
}